target datalayout = "e-m:e-p270:32:32-p271:32:32-p272:64:64-i64:64-i128:128-f80:128-n8:16:32:64-S128"
target triple = "x86_64-pc-linux-gnu"

%struct.ident_t = type { i32, i32, i32, i32, ptr }
%"struct.faiss::HeapArray" = type { i64, i64, ptr, ptr }

@1 = private unnamed_addr constant %struct.ident_t { i32 0, i32 514, i32 0, i32 22, ptr @0 }, align 8

; Function Attrs: mustprogress nounwind uwtable
define linkonce_odr noundef float @_ZNSt14numeric_limitsIfE3maxEv() #0 comdat align 2 {
  ret float 0x47EFFFFFE0000000
}

; Function Attrs: noinline noreturn nounwind uwtable
define linkonce_odr hidden void @__clang_call_terminate(ptr noundef %0) #5 comdat {
  %2 = call ptr @__cxa_begin_catch(ptr %0) #3
  call void @_ZSt9terminatev() #18
  unreachable
}

; Function Attrs: inlinehint mustprogress nounwind uwtable
define linkonce_odr noundef zeroext i1 @_ZN5faiss4CMinIflE3cmpEff(float noundef %0, float noundef %1) #6 comdat align 2 {
  %3 = alloca float, align 4
  %4 = alloca float, align 4
  store float %0, ptr %3, align 4, !tbaa !24
  store float %1, ptr %4, align 4, !tbaa !24
  %5 = load float, ptr %3, align 4, !tbaa !24
  %6 = load float, ptr %4, align 4, !tbaa !24
  %7 = fcmp olt float %5, %6
  ret i1 %7
}

; Function Attrs: inlinehint mustprogress nounwind uwtable
define linkonce_odr noundef float @_ZN5faiss4CMaxIflE7neutralEv() #6 comdat align 2 {
  %1 = call noundef float @_ZNSt14numeric_limitsIfE3maxEv() #3
  ret float %1
}

; Function Attrs: noinline norecurse nounwind uwtable
define internal void @_ZNK5faiss9HeapArrayINS_4CMinIflEEE16per_line_extremaEPfPl.omp_outlined(ptr noalias noundef %0, ptr noalias noundef %1, ptr noundef %2, ptr noundef nonnull align 8 dereferenceable(8) %3, ptr noundef nonnull align 8 dereferenceable(8) %4) #7 personality ptr @__gxx_personality_v0 {
  %6 = alloca ptr, align 8
  %7 = alloca ptr, align 8
  %8 = alloca ptr, align 8
  %9 = alloca ptr, align 8
  %10 = alloca ptr, align 8
  %11 = alloca i64, align 8
  %12 = alloca i64, align 8
  %13 = alloca i64, align 8
  %14 = alloca i64, align 8
  %15 = alloca i64, align 8
  %16 = alloca i64, align 8
  %17 = alloca i64, align 8
  %18 = alloca i32, align 4
  %19 = alloca i64, align 8
  %20 = alloca i64, align 8
  %21 = alloca float, align 4
  %22 = alloca ptr, align 8
  %23 = alloca i64, align 8
  store ptr %0, ptr %6, align 8, !tbaa !17
  store ptr %1, ptr %7, align 8, !tbaa !17
  store ptr %2, ptr %8, align 8, !tbaa !4
  store ptr %3, ptr %9, align 8, !tbaa !33
  store ptr %4, ptr %10, align 8, !tbaa !37
  %24 = load ptr, ptr %8, align 8, !tbaa !4
  %25 = load ptr, ptr %9, align 8, !tbaa !33
  %26 = load ptr, ptr %10, align 8, !tbaa !37
  call void @llvm.lifetime.start.p0(i64 8, ptr %11) #3
  call void @llvm.lifetime.start.p0(i64 8, ptr %12) #3
  %27 = getelementptr inbounds nuw %"struct.faiss::HeapArray", ptr %24, i32 0, i32 0
  %28 = load i64, ptr %27, align 8, !tbaa !19
  store i64 %28, ptr %12, align 8, !tbaa !9
  call void @llvm.lifetime.start.p0(i64 8, ptr %13) #3
  %29 = load i64, ptr %12, align 8, !tbaa !9
  %30 = sub i64 %29, 0
  %31 = udiv i64 %30, 1
  %32 = sub i64 %31, 1
  store i64 %32, ptr %13, align 8, !tbaa !9
  call void @llvm.lifetime.start.p0(i64 8, ptr %14) #3
  store i64 0, ptr %14, align 8, !tbaa !9
  call void @llvm.lifetime.end.p0(i64 8, ptr %14) #3
  %33 = load i64, ptr %12, align 8, !tbaa !9
  %34 = icmp ult i64 0, %33
  br i1 %34, label %35, label %138

35:                                               ; preds = %5
  call void @llvm.lifetime.start.p0(i64 8, ptr %15) #3
  store i64 0, ptr %15, align 8, !tbaa !9
  call void @llvm.lifetime.start.p0(i64 8, ptr %16) #3
  %36 = load i64, ptr %13, align 8, !tbaa !9
  store i64 %36, ptr %16, align 8, !tbaa !9
  call void @llvm.lifetime.start.p0(i64 8, ptr %17) #3
  store i64 1, ptr %17, align 8, !tbaa !9
  call void @llvm.lifetime.start.p0(i64 4, ptr %18) #3
  store i32 0, ptr %18, align 4, !tbaa !20
  call void @llvm.lifetime.start.p0(i64 8, ptr %19) #3
  %37 = load ptr, ptr %6, align 8
  %38 = load i32, ptr %37, align 4, !tbaa !20
  call void @__kmpc_for_static_init_8u(ptr @1, i32 %38, i32 34, ptr %18, ptr %15, ptr %16, ptr %17, i64 1, i64 1)
  %39 = load i64, ptr %16, align 8, !tbaa !9
  %40 = load i64, ptr %13, align 8, !tbaa !9
  %41 = icmp ugt i64 %39, %40
  br i1 %41, label %42, label %44

42:                                               ; preds = %35
  %43 = load i64, ptr %13, align 8, !tbaa !9
  br label %46

44:                                               ; preds = %35
  %45 = load i64, ptr %16, align 8, !tbaa !9
  br label %46

46:                                               ; preds = %44, %42
  %47 = phi i64 [ %43, %42 ], [ %45, %44 ]
  store i64 %47, ptr %16, align 8, !tbaa !9
  %48 = load i64, ptr %15, align 8, !tbaa !9
  store i64 %48, ptr %11, align 8, !tbaa !9
  br label %49

49:                                               ; preds = %131, %46
  %50 = load i64, ptr %11, align 8, !tbaa !9
  %51 = load i64, ptr %16, align 8, !tbaa !9
  %52 = add i64 %51, 1
  %53 = icmp ult i64 %50, %52
  br i1 %53, label %55, label %54

54:                                               ; preds = %49
  br label %134

55:                                               ; preds = %49
  %56 = load i64, ptr %11, align 8, !tbaa !9
  %57 = mul i64 %56, 1
  %58 = add i64 0, %57
  store i64 %58, ptr %19, align 8, !tbaa !9
  call void @llvm.lifetime.start.p0(i64 8, ptr %20) #3
  store i64 -1, ptr %20, align 8, !tbaa !9
  call void @llvm.lifetime.start.p0(i64 4, ptr %21) #3
  %59 = invoke noundef float @_ZN5faiss4CMaxIflE7neutralEv()
          to label %60 unwind label %139

60:                                               ; preds = %55
  store float %59, ptr %21, align 4, !tbaa !24
  call void @llvm.lifetime.start.p0(i64 8, ptr %22) #3
  %61 = getelementptr inbounds nuw %"struct.faiss::HeapArray", ptr %24, i32 0, i32 3
  %62 = load ptr, ptr %61, align 8, !tbaa !11
  %63 = load i64, ptr %19, align 8, !tbaa !9
  %64 = getelementptr inbounds nuw %"struct.faiss::HeapArray", ptr %24, i32 0, i32 1
  %65 = load i64, ptr %64, align 8, !tbaa !15
  %66 = mul i64 %63, %65
  %67 = getelementptr inbounds nuw float, ptr %62, i64 %66
  store ptr %67, ptr %22, align 8, !tbaa !22
  call void @llvm.lifetime.start.p0(i64 8, ptr %23) #3
  store i64 0, ptr %23, align 8, !tbaa !9
  br label %68

68:                                               ; preds = %88, %60
  %69 = load i64, ptr %23, align 8, !tbaa !9
  %70 = getelementptr inbounds nuw %"struct.faiss::HeapArray", ptr %24, i32 0, i32 1
  %71 = load i64, ptr %70, align 8, !tbaa !15
  %72 = icmp ult i64 %69, %71
  br i1 %72, label %74, label %73

73:                                               ; preds = %68
  call void @llvm.lifetime.end.p0(i64 8, ptr %23) #3
  br label %91

74:                                               ; preds = %68
  %75 = load ptr, ptr %22, align 8, !tbaa !22
  %76 = load i64, ptr %23, align 8, !tbaa !9
  %77 = getelementptr inbounds nuw float, ptr %75, i64 %76
  %78 = load float, ptr %77, align 4, !tbaa !24
  %79 = load float, ptr %21, align 4, !tbaa !24
  %80 = call noundef zeroext i1 @_ZN5faiss4CMinIflE3cmpEff(float noundef %78, float noundef %79)
  br i1 %80, label %81, label %87

81:                                               ; preds = %74
  %82 = load ptr, ptr %22, align 8, !tbaa !22
  %83 = load i64, ptr %23, align 8, !tbaa !9
  %84 = getelementptr inbounds nuw float, ptr %82, i64 %83
  %85 = load float, ptr %84, align 4, !tbaa !24
  store float %85, ptr %21, align 4, !tbaa !24
  %86 = load i64, ptr %23, align 8, !tbaa !9
  store i64 %86, ptr %20, align 8, !tbaa !9
  br label %87

87:                                               ; preds = %81, %74
  br label %88

88:                                               ; preds = %87
  %89 = load i64, ptr %23, align 8, !tbaa !9
  %90 = add i64 %89, 1
  store i64 %90, ptr %23, align 8, !tbaa !9
  br label %68, !llvm.loop !64

91:                                               ; preds = %73
  %92 = load ptr, ptr %25, align 8, !tbaa !22
  %93 = icmp ne ptr %92, null
  br i1 %93, label %94, label %99

94:                                               ; preds = %91
  %95 = load float, ptr %21, align 4, !tbaa !24
  %96 = load ptr, ptr %25, align 8, !tbaa !22
  %97 = load i64, ptr %19, align 8, !tbaa !9
  %98 = getelementptr inbounds float, ptr %96, i64 %97
  store float %95, ptr %98, align 4, !tbaa !24
  br label %99

99:                                               ; preds = %94, %91
  %100 = load ptr, ptr %26, align 8, !tbaa !23
  %101 = icmp ne ptr %100, null
  br i1 %101, label %102, label %129

102:                                              ; preds = %99
  %103 = getelementptr inbounds nuw %"struct.faiss::HeapArray", ptr %24, i32 0, i32 2
  %104 = load ptr, ptr %103, align 8, !tbaa !16
  %105 = icmp ne ptr %104, null
  br i1 %105, label %106, label %123

106:                                              ; preds = %102
  %107 = load i64, ptr %20, align 8, !tbaa !9
  %108 = icmp ne i64 %107, -1
  br i1 %108, label %109, label %123

109:                                              ; preds = %106
  %110 = getelementptr inbounds nuw %"struct.faiss::HeapArray", ptr %24, i32 0, i32 2
  %111 = load ptr, ptr %110, align 8, !tbaa !16
  %112 = load i64, ptr %19, align 8, !tbaa !9
  %113 = getelementptr inbounds nuw %"struct.faiss::HeapArray", ptr %24, i32 0, i32 1
  %114 = load i64, ptr %113, align 8, !tbaa !15
  %115 = mul i64 %112, %114
  %116 = load i64, ptr %20, align 8, !tbaa !9
  %117 = add i64 %115, %116
  %118 = getelementptr inbounds nuw i64, ptr %111, i64 %117
  %119 = load i64, ptr %118, align 8, !tbaa !9
  %120 = load ptr, ptr %26, align 8, !tbaa !23
  %121 = load i64, ptr %19, align 8, !tbaa !9
  %122 = getelementptr inbounds i64, ptr %120, i64 %121
  store i64 %119, ptr %122, align 8, !tbaa !9
  br label %128

123:                                              ; preds = %106, %102
  %124 = load i64, ptr %20, align 8, !tbaa !9
  %125 = load ptr, ptr %26, align 8, !tbaa !23
  %126 = load i64, ptr %19, align 8, !tbaa !9
  %127 = getelementptr inbounds i64, ptr %125, i64 %126
  store i64 %124, ptr %127, align 8, !tbaa !9
  br label %128

128:                                              ; preds = %123, %109
  br label %129

129:                                              ; preds = %128, %99
  call void @llvm.lifetime.end.p0(i64 8, ptr %22) #3
  call void @llvm.lifetime.end.p0(i64 4, ptr %21) #3
  call void @llvm.lifetime.end.p0(i64 8, ptr %20) #3
  br label %130

130:                                              ; preds = %129
  br label %131

131:                                              ; preds = %130
  %132 = load i64, ptr %11, align 8, !tbaa !9
  %133 = add i64 %132, 1
  store i64 %133, ptr %11, align 8, !tbaa !9
  br label %49

134:                                              ; preds = %54
  br label %135

135:                                              ; preds = %134
  %136 = load ptr, ptr %6, align 8
  %137 = load i32, ptr %136, align 4, !tbaa !20
  call void @__kmpc_for_static_fini(ptr @1, i32 %137)
  call void @llvm.lifetime.end.p0(i64 8, ptr %19) #3
  call void @llvm.lifetime.end.p0(i64 4, ptr %18) #3
  call void @llvm.lifetime.end.p0(i64 8, ptr %17) #3
  call void @llvm.lifetime.end.p0(i64 8, ptr %16) #3
  call void @llvm.lifetime.end.p0(i64 8, ptr %15) #3
  br label %138

138:                                              ; preds = %135, %5
  call void @llvm.lifetime.end.p0(i64 8, ptr %13) #3
  call void @llvm.lifetime.end.p0(i64 8, ptr %12) #3
  call void @llvm.lifetime.end.p0(i64 8, ptr %11) #3
  ret void

139:                                              ; preds = %55
  %140 = landingpad { ptr, i32 }
          catch ptr null
  %141 = extractvalue { ptr, i32 } %140, 0
  call void @__clang_call_terminate(ptr %141) #18
  unreachable
}