; Function Attrs: noinline norecurse nounwind uwtable
define internal void @_ZNK5faiss9HeapArrayINS_4CMinIflEEE16per_line_extremaEPfPl.omp_outlined(ptr noalias noundef readonly captures(none) %0, ptr noalias readnone captures(none) %1, ptr noundef readonly captures(none) %2, ptr noundef nonnull readonly align 8 captures(none) dereferenceable(8) %3, ptr noundef nonnull readonly align 8 captures(none) dereferenceable(8) %4) #6 personality ptr @__gxx_personality_v0 {
  %6 = alloca i64, align 8
  %7 = alloca i64, align 8
  %8 = alloca i64, align 8
  %9 = alloca i32, align 4
  %10 = load i64, ptr %2, align 8, !tbaa !14
  %.not = icmp eq i64 %10, 0
  br i1 %.not, label %98, label %11

11:                                               ; preds = %5
  %12 = add i64 %10, -1
  call void @llvm.lifetime.start.p0(i64 8, ptr nonnull %6) #3
  store i64 0, ptr %6, align 8, !tbaa !15
  call void @llvm.lifetime.start.p0(i64 8, ptr nonnull %7) #3
  store i64 %12, ptr %7, align 8, !tbaa !15
  call void @llvm.lifetime.start.p0(i64 8, ptr nonnull %8) #3
  store i64 1, ptr %8, align 8, !tbaa !15
  call void @llvm.lifetime.start.p0(i64 4, ptr nonnull %9) #3
  store i32 0, ptr %9, align 4, !tbaa !16
  %13 = load i32, ptr %0, align 4, !tbaa !16
  call void @__kmpc_for_static_init_8u(ptr nonnull @1, i32 %13, i32 34, ptr nonnull %9, ptr nonnull %6, ptr nonnull %7, ptr nonnull %8, i64 1, i64 1)
  %14 = load i64, ptr %7, align 8, !tbaa !15
  %15 = call i64 @llvm.umin.i64(i64 %14, i64 %12)
  store i64 %15, ptr %7, align 8, !tbaa !15
  %16 = load i64, ptr %6, align 8, !tbaa !15
  %.not103 = icmp ugt i64 %16, %15
  br i1 %.not103, label %._crit_edge46, label %.lr.ph45

.lr.ph45:                                         ; preds = %11
  %17 = getelementptr inbounds nuw i8, ptr %2, i64 24
  %18 = load ptr, ptr %17, align 8, !tbaa !4
  %19 = getelementptr inbounds nuw i8, ptr %2, i64 8
  %20 = load ptr, ptr %3, align 8, !tbaa !26
  %.not37 = icmp eq ptr %20, null
  %21 = load ptr, ptr %4, align 8, !tbaa !30
  %.not38 = icmp eq ptr %21, null
  br i1 %.not38, label %.lr.ph45.split.us, label %.lr.ph45.split

.lr.ph45.split.us:                                ; preds = %.lr.ph45
  %22 = load i64, ptr %19, align 8, !tbaa !12
  %.not80 = icmp eq i64 %22, 0
  br i1 %.not80, label %.lr.ph45.split.us.split, label %.lr.ph45.split.us.split.us

.lr.ph45.split.us.split.us:                       ; preds = %.lr.ph45.split.us
  br i1 %.not37, label %._crit_edge46, label %.lr.ph.us.us

.lr.ph.us.us:                                     ; preds = %.lr.ph45.split.us.split.us, %._crit_edge.us.us
  %.03043.us.us = phi i64 [ %31, %._crit_edge.us.us ], [ %16, %.lr.ph45.split.us.split.us ]
  %23 = mul i64 %22, %.03043.us.us
  %24 = getelementptr inbounds nuw float, ptr %18, i64 %23
  br label %25

25:                                               ; preds = %.lr.ph.us.us, %25
  %.041.us.us = phi i64 [ 0, %.lr.ph.us.us ], [ %29, %25 ]
  %.03140.us.us = phi float [ 0x47EFFFFFE0000000, %.lr.ph.us.us ], [ %.1.us.us, %25 ]
  %26 = getelementptr inbounds nuw float, ptr %24, i64 %.041.us.us
  %27 = load float, ptr %26, align 4, !tbaa !18
  %28 = fcmp olt float %27, %.03140.us.us
  %.1.us.us = select i1 %28, float %27, float %.03140.us.us
  %29 = add nuw i64 %.041.us.us, 1
  %exitcond91.not = icmp eq i64 %29, %22
  br i1 %exitcond91.not, label %._crit_edge.us.us, label %25, !llvm.loop !47

._crit_edge.us.us:                                ; preds = %25
  %30 = getelementptr inbounds float, ptr %20, i64 %.03043.us.us
  store float %.1.us.us, ptr %30, align 4, !tbaa !18
  %31 = add nuw i64 %.03043.us.us, 1
  %32 = icmp ult i64 %.03043.us.us, %15
  br i1 %32, label %.lr.ph.us.us, label %._crit_edge46

.lr.ph45.split.us.split:                          ; preds = %.lr.ph45.split.us
  br i1 %.not37, label %._crit_edge46, label %.lr.ph45.split.us.split.split

.lr.ph45.split.us.split.split:                    ; preds = %.lr.ph45.split.us.split, %.lr.ph45.split.us.split.split
  %.03043.us = phi i64 [ %34, %.lr.ph45.split.us.split.split ], [ %16, %.lr.ph45.split.us.split ]
  %33 = getelementptr inbounds float, ptr %20, i64 %.03043.us
  store float 0x47EFFFFFE0000000, ptr %33, align 4, !tbaa !18
  %34 = add nuw i64 %.03043.us, 1
  %35 = icmp ult i64 %.03043.us, %15
  br i1 %35, label %.lr.ph45.split.us.split.split, label %._crit_edge46

.lr.ph45.split:                                   ; preds = %.lr.ph45
  %36 = getelementptr inbounds nuw i8, ptr %2, i64 16
  %37 = load ptr, ptr %36, align 8, !tbaa !13
  %.fr72 = freeze ptr %37
  %.not73 = icmp eq ptr %.fr72, null
  br i1 %.not73, label %.lr.ph45.split.split.us, label %.lr.ph45.split.split

.lr.ph45.split.split.us:                          ; preds = %.lr.ph45.split
  br i1 %.not37, label %.lr.ph45.split.split.us.split.us, label %.lr.ph45.split.split.us.split

.lr.ph45.split.split.us.split.us:                 ; preds = %.lr.ph45.split.split.us, %._crit_edge.us56.us
  %.03043.us47.us = phi i64 [ %42, %._crit_edge.us56.us ], [ %16, %.lr.ph45.split.split.us ]
  %38 = load i64, ptr %19, align 8, !tbaa !12
  %39 = mul i64 %38, %.03043.us47.us
  %40 = getelementptr inbounds nuw float, ptr %18, i64 %39
  %.not75 = icmp eq i64 %38, 0
  br i1 %.not75, label %._crit_edge.us56.us, label %.lr.ph.us55.us

._crit_edge.us56.us:                              ; preds = %.lr.ph.us55.us, %.lr.ph45.split.split.us.split.us
  %.032.lcssa.us48.us = phi i64 [ -1, %.lr.ph45.split.split.us.split.us ], [ %.133.us53.us, %.lr.ph.us55.us ]
  %41 = getelementptr inbounds i64, ptr %21, i64 %.03043.us47.us
  store i64 %.032.lcssa.us48.us, ptr %41, align 8, !tbaa !15
  %42 = add nuw i64 %.03043.us47.us, 1
  %43 = load i64, ptr %7, align 8, !tbaa !15
  %44 = add i64 %43, 1
  %45 = icmp ult i64 %42, %44
  br i1 %45, label %.lr.ph45.split.split.us.split.us, label %._crit_edge46

.lr.ph.us55.us:                                   ; preds = %.lr.ph45.split.split.us.split.us, %.lr.ph.us55.us
  %.041.us50.us = phi i64 [ %49, %.lr.ph.us55.us ], [ 0, %.lr.ph45.split.split.us.split.us ]
  %.03140.us51.us = phi float [ %.1.us54.us, %.lr.ph.us55.us ], [ 0x47EFFFFFE0000000, %.lr.ph45.split.split.us.split.us ]
  %.03239.us52.us = phi i64 [ %.133.us53.us, %.lr.ph.us55.us ], [ -1, %.lr.ph45.split.split.us.split.us ]
  %46 = getelementptr inbounds nuw float, ptr %40, i64 %.041.us50.us
  %47 = load float, ptr %46, align 4, !tbaa !18
  %48 = fcmp olt float %47, %.03140.us51.us
  %.133.us53.us = select i1 %48, i64 %.041.us50.us, i64 %.03239.us52.us
  %.1.us54.us = select i1 %48, float %47, float %.03140.us51.us
  %49 = add nuw i64 %.041.us50.us, 1
  %exitcond90.not = icmp eq i64 %49, %38
  br i1 %exitcond90.not, label %._crit_edge.us56.us, label %.lr.ph.us55.us, !llvm.loop !47

.lr.ph45.split.split.us.split:                    ; preds = %.lr.ph45.split.split.us, %._crit_edge.us56
  %.03043.us47 = phi i64 [ %55, %._crit_edge.us56 ], [ %16, %.lr.ph45.split.split.us ]
  %50 = load i64, ptr %19, align 8, !tbaa !12
  %51 = mul i64 %50, %.03043.us47
  %52 = getelementptr inbounds nuw float, ptr %18, i64 %51
  %.not74 = icmp eq i64 %50, 0
  br i1 %.not74, label %._crit_edge.us56, label %.lr.ph.us55

._crit_edge.us56:                                 ; preds = %.lr.ph.us55, %.lr.ph45.split.split.us.split
  %.032.lcssa.us48 = phi i64 [ -1, %.lr.ph45.split.split.us.split ], [ %.133.us53, %.lr.ph.us55 ]
  %.031.lcssa.us49 = phi float [ 0x47EFFFFFE0000000, %.lr.ph45.split.split.us.split ], [ %.1.us54, %.lr.ph.us55 ]
  %53 = getelementptr inbounds float, ptr %20, i64 %.03043.us47
  store float %.031.lcssa.us49, ptr %53, align 4, !tbaa !18
  %54 = getelementptr inbounds i64, ptr %21, i64 %.03043.us47
  store i64 %.032.lcssa.us48, ptr %54, align 8, !tbaa !15
  %55 = add nuw i64 %.03043.us47, 1
  %56 = load i64, ptr %7, align 8, !tbaa !15
  %57 = add i64 %56, 1
  %58 = icmp ult i64 %55, %57
  br i1 %58, label %.lr.ph45.split.split.us.split, label %._crit_edge46

.lr.ph.us55:                                      ; preds = %.lr.ph45.split.split.us.split, %.lr.ph.us55
  %.041.us50 = phi i64 [ %62, %.lr.ph.us55 ], [ 0, %.lr.ph45.split.split.us.split ]
  %.03140.us51 = phi float [ %.1.us54, %.lr.ph.us55 ], [ 0x47EFFFFFE0000000, %.lr.ph45.split.split.us.split ]
  %.03239.us52 = phi i64 [ %.133.us53, %.lr.ph.us55 ], [ -1, %.lr.ph45.split.split.us.split ]
  %59 = getelementptr inbounds nuw float, ptr %52, i64 %.041.us50
  %60 = load float, ptr %59, align 4, !tbaa !18
  %61 = fcmp olt float %60, %.03140.us51
  %.133.us53 = select i1 %61, i64 %.041.us50, i64 %.03239.us52
  %.1.us54 = select i1 %61, float %60, float %.03140.us51
  %62 = add nuw i64 %.041.us50, 1
  %exitcond89.not = icmp eq i64 %62, %50
  br i1 %exitcond89.not, label %._crit_edge.us56, label %.lr.ph.us55, !llvm.loop !47

.lr.ph45.split.split:                             ; preds = %.lr.ph45.split
  br i1 %.not37, label %.lr.ph45.split.split.split.us, label %.lr.ph45.split.split.split

.lr.ph45.split.split.split.us:                    ; preds = %.lr.ph45.split.split, %._crit_edge.us68.thread
  %.03043.us59 = phi i64 [ %71, %._crit_edge.us68.thread ], [ %16, %.lr.ph45.split.split ]
  %63 = load i64, ptr %19, align 8, !tbaa !12
  %64 = mul i64 %63, %.03043.us59
  %65 = getelementptr inbounds nuw float, ptr %18, i64 %64
  %.not78 = icmp eq i64 %63, 0
  br i1 %.not78, label %._crit_edge.us68.thread, label %.lr.ph.us67

._crit_edge.us68:                                 ; preds = %.lr.ph.us67
  %.not79 = icmp eq i64 %.133.us65, -1
  br i1 %.not79, label %._crit_edge.us68.thread, label %66

66:                                               ; preds = %._crit_edge.us68
  %67 = getelementptr i64, ptr %.fr72, i64 %64
  %68 = getelementptr i64, ptr %67, i64 %.133.us65
  %69 = load i64, ptr %68, align 8, !tbaa !15
  br label %._crit_edge.us68.thread

._crit_edge.us68.thread:                          ; preds = %.lr.ph45.split.split.split.us, %._crit_edge.us68, %66
  %.sink = phi i64 [ %69, %66 ], [ -1, %._crit_edge.us68 ], [ -1, %.lr.ph45.split.split.split.us ]
  %70 = getelementptr inbounds i64, ptr %21, i64 %.03043.us59
  store i64 %.sink, ptr %70, align 8, !tbaa !15
  %71 = add nuw i64 %.03043.us59, 1
  %72 = load i64, ptr %7, align 8, !tbaa !15
  %73 = add i64 %72, 1
  %74 = icmp ult i64 %71, %73
  br i1 %74, label %.lr.ph45.split.split.split.us, label %._crit_edge46

.lr.ph.us67:                                      ; preds = %.lr.ph45.split.split.split.us, %.lr.ph.us67
  %.041.us62 = phi i64 [ %78, %.lr.ph.us67 ], [ 0, %.lr.ph45.split.split.split.us ]
  %.03140.us63 = phi float [ %.1.us66, %.lr.ph.us67 ], [ 0x47EFFFFFE0000000, %.lr.ph45.split.split.split.us ]
  %.03239.us64 = phi i64 [ %.133.us65, %.lr.ph.us67 ], [ -1, %.lr.ph45.split.split.split.us ]
  %75 = getelementptr inbounds nuw float, ptr %65, i64 %.041.us62
  %76 = load float, ptr %75, align 4, !tbaa !18
  %77 = fcmp olt float %76, %.03140.us63
  %.133.us65 = select i1 %77, i64 %.041.us62, i64 %.03239.us64
  %.1.us66 = select i1 %77, float %76, float %.03140.us63
  %78 = add nuw i64 %.041.us62, 1
  %exitcond88.not = icmp eq i64 %78, %63
  br i1 %exitcond88.not, label %._crit_edge.us68, label %.lr.ph.us67, !llvm.loop !47

.lr.ph45.split.split.split:                       ; preds = %.lr.ph45.split.split, %92
  %.03043 = phi i64 [ %94, %92 ], [ %16, %.lr.ph45.split.split ]
  %79 = load i64, ptr %19, align 8, !tbaa !12
  %80 = mul i64 %79, %.03043
  %81 = getelementptr inbounds nuw float, ptr %18, i64 %80
  %.not76 = icmp eq i64 %79, 0
  br i1 %.not76, label %._crit_edge.thread, label %.lr.ph

._crit_edge.thread:                               ; preds = %.lr.ph45.split.split.split
  %82 = getelementptr inbounds float, ptr %20, i64 %.03043
  store float 0x47EFFFFFE0000000, ptr %82, align 4, !tbaa !18
  br label %92

._crit_edge:                                      ; preds = %.lr.ph
  %83 = getelementptr inbounds float, ptr %20, i64 %.03043
  store float %.1, ptr %83, align 4, !tbaa !18
  %.not77 = icmp eq i64 %.133, -1
  br i1 %.not77, label %92, label %88

.lr.ph:                                           ; preds = %.lr.ph45.split.split.split, %.lr.ph
  %.041 = phi i64 [ %87, %.lr.ph ], [ 0, %.lr.ph45.split.split.split ]
  %.03140 = phi float [ %.1, %.lr.ph ], [ 0x47EFFFFFE0000000, %.lr.ph45.split.split.split ]
  %.03239 = phi i64 [ %.133, %.lr.ph ], [ -1, %.lr.ph45.split.split.split ]
  %84 = getelementptr inbounds nuw float, ptr %81, i64 %.041
  %85 = load float, ptr %84, align 4, !tbaa !18
  %86 = fcmp olt float %85, %.03140
  %.133 = select i1 %86, i64 %.041, i64 %.03239
  %.1 = select i1 %86, float %85, float %.03140
  %87 = add nuw i64 %.041, 1
  %exitcond.not = icmp eq i64 %87, %79
  br i1 %exitcond.not, label %._crit_edge, label %.lr.ph, !llvm.loop !47

88:                                               ; preds = %._crit_edge
  %89 = getelementptr i64, ptr %.fr72, i64 %80
  %90 = getelementptr i64, ptr %89, i64 %.133
  %91 = load i64, ptr %90, align 8, !tbaa !15
  br label %92

92:                                               ; preds = %._crit_edge, %._crit_edge.thread, %88
  %.sink92 = phi i64 [ %91, %88 ], [ -1, %._crit_edge.thread ], [ -1, %._crit_edge ]
  %93 = getelementptr inbounds i64, ptr %21, i64 %.03043
  store i64 %.sink92, ptr %93, align 8, !tbaa !15
  %94 = add nuw i64 %.03043, 1
  %95 = load i64, ptr %7, align 8, !tbaa !15
  %96 = add i64 %95, 1
  %97 = icmp ult i64 %94, %96
  br i1 %97, label %.lr.ph45.split.split.split, label %._crit_edge46

._crit_edge46:                                    ; preds = %92, %._crit_edge.us68.thread, %._crit_edge.us56, %._crit_edge.us56.us, %._crit_edge.us.us, %.lr.ph45.split.us.split.split, %.lr.ph45.split.us.split, %.lr.ph45.split.us.split.us, %11
  call void @__kmpc_for_static_fini(ptr nonnull @1, i32 %13)
  call void @llvm.lifetime.end.p0(i64 4, ptr nonnull %9) #3
  call void @llvm.lifetime.end.p0(i64 8, ptr nonnull %8) #3
  call void @llvm.lifetime.end.p0(i64 8, ptr nonnull %7) #3
  call void @llvm.lifetime.end.p0(i64 8, ptr nonnull %6) #3
  br label %98

98:                                               ; preds = %._crit_edge46, %5
  ret void
}